Certificate:
    Data:
        Version: 3 (0x2)
        Serial Number: 306714175 (0x1248163f)
        Signature Algorithm: sha384WithRSAEncryption
        Issuer: CN=CA1_sha384_4096_65537_v3_ca
        Validity
            Not Before: Aug 15 15:55:05 2022 GMT
            Not After : Aug 10 15:55:05 2042 GMT
        Subject: CN=SRK2_sha384_4096_65537_v3_usr
        Subject Public Key Info:
            Public Key Algorithm: rsaEncryption
                RSA Public-Key: (4096 bit)
                Modulus:
                    00:ba:b6:bd:c2:aa:db:80:74:82:99:c5:72:93:17:
                    62:83:35:98:66:6d:b3:14:be:2f:33:0f:3b:18:3e:
                    63:0f:10:08:fb:f3:47:ee:bd:16:f2:c4:a1:fc:2f:
                    d7:8e:fd:e4:15:81:e9:5a:be:93:f7:08:cf:1e:6c:
                    43:50:2e:8e:8f:ec:fb:e5:3e:6d:1c:4f:70:09:ca:
                    87:67:6b:4c:bb:c0:ac:8b:8b:10:68:e5:6c:12:a2:
                    e0:43:a1:fa:d3:db:24:f1:0a:05:d6:a3:c1:d9:2f:
                    33:40:a6:06:64:26:95:f6:c0:df:89:e8:61:81:cd:
                    e3:4b:9f:da:6b:e2:e3:2d:28:4b:2c:50:95:e5:7b:
                    39:17:e1:c0:b7:1c:2c:27:9d:5e:f3:14:17:b9:c8:
                    2e:e0:7d:01:4d:c2:01:bb:76:9d:4c:a5:ad:68:1a:
                    54:d0:cd:c6:44:06:17:a5:e4:62:51:b5:20:fa:2f:
                    d1:4f:3e:78:d4:2b:b8:09:98:eb:88:c3:52:8e:82:
                    7d:9e:1a:2c:bb:a2:19:9f:e8:25:e0:13:59:29:5b:
                    31:75:13:bd:0d:02:19:d3:13:56:4f:9a:c7:45:d7:
                    92:6f:20:7d:ac:f0:dd:d1:e5:5a:0e:8e:d0:d4:a0:
                    72:c0:80:6a:5f:2a:29:90:1f:ec:03:4b:f7:41:00:
                    8e:de:1f:b1:5c:f4:60:e3:a5:81:61:05:50:77:de:
                    7b:cf:e0:3f:56:7f:e3:59:c6:8c:d0:c1:f1:12:0b:
                    3b:4b:0a:f9:70:ca:c5:35:2a:15:09:4e:77:41:6b:
                    82:b7:a6:21:da:b3:95:f8:de:59:66:1f:94:00:e8:
                    c1:bc:12:ad:cc:c9:ff:55:9f:61:cd:74:16:c3:3e:
                    38:0d:f7:15:c7:67:3c:00:2e:0c:22:8f:59:ce:7e:
                    95:89:fe:22:26:c3:fd:85:cf:4f:71:70:22:89:66:
                    98:7c:01:53:ef:cd:6f:ce:31:c1:32:df:41:76:19:
                    6d:bb:ba:4d:64:14:7f:75:5a:21:57:13:63:a9:05:
                    f4:0c:8e:d3:e8:14:6e:57:2d:d5:3a:b8:97:46:a8:
                    df:7e:5a:cc:18:ce:fb:8b:bf:ac:20:f0:11:80:63:
                    48:8e:d2:8f:ec:e1:f1:77:e9:5c:16:08:b0:7e:e1:
                    e2:49:e3:e2:2f:e6:64:73:99:01:c4:b1:1a:b5:83:
                    56:a6:a0:25:39:20:8d:2b:79:75:d6:d7:ea:e0:e1:
                    d4:00:16:9c:ef:b1:ff:6f:1a:dc:d5:40:7b:e1:5c:
                    f8:51:ad:8e:e4:45:2f:42:13:a5:92:26:28:24:1d:
                    ba:2b:af:8e:db:d2:29:82:33:8e:c3:a0:b3:91:d5:
                    94:14:55
                Exponent: 65537 (0x10001)
        X509v3 extensions:
            X509v3 Basic Constraints: 
                CA:FALSE
            Netscape Comment: 
                OpenSSL Generated Certificate
            X509v3 Subject Key Identifier: 
                F2:1E:E7:C5:3E:5D:5C:F2:E0:99:23:6B:F0:96:E6:36:24:82:2C:38
            X509v3 Authority Key Identifier: 
                keyid:23:B4:DA:4C:1B:69:E3:3A:BE:CC:67:BD:5A:98:F4:C6:8B:25:71:21

    Signature Algorithm: sha384WithRSAEncryption
         0d:be:bc:4b:b1:7c:e7:c6:1b:ba:38:20:f5:d8:05:bc:05:2c:
         34:69:92:f0:01:fe:9f:43:8d:05:b2:16:2e:05:31:21:6c:78:
         9b:92:c2:b0:8a:a2:51:cc:38:ec:7b:43:a2:a1:0c:40:0b:61:
         f3:4a:a9:bd:c9:13:7f:c4:cc:d2:53:2e:be:e5:1b:cb:52:de:
         7f:ae:c2:f9:f0:1f:34:6b:5c:d0:d8:e5:48:c9:9f:5d:7a:de:
         74:ee:f8:14:a9:96:47:64:b2:69:1e:1c:46:09:c7:09:00:21:
         5a:50:58:d0:90:65:f3:51:15:f8:2e:1c:cb:32:cc:8e:8a:8c:
         e6:51:ea:df:e2:29:e6:17:28:a0:69:a6:f3:32:97:21:43:0b:
         85:1c:2c:9b:b3:9a:11:67:a1:f8:8c:cd:90:50:7a:90:2a:c0:
         70:66:77:e3:a0:da:91:a7:25:14:cc:80:00:1e:ff:a0:49:25:
         99:5d:1d:7c:95:1e:09:db:d9:77:21:de:af:e9:9c:84:7e:6d:
         e5:8c:a9:b8:d1:fe:4d:74:fe:33:2b:09:84:69:3b:92:dc:2b:
         8c:9e:ce:82:e3:c6:fa:bc:36:c0:1c:b2:a3:ab:da:4a:04:3b:
         bd:45:45:1b:d5:11:ea:00:cd:4b:96:82:d5:4f:c7:7b:12:30:
         9b:99:b3:7c:5a:c5:e2:12:06:98:8c:0d:40:dc:7c:fa:81:00:
         9a:63:20:78:a4:95:3c:1c:89:09:ad:44:6d:75:f9:5d:f6:2d:
         9d:88:b7:42:fe:ef:fc:11:0d:ba:a4:88:06:5e:e4:5d:fe:f0:
         05:46:a4:50:8c:9c:e9:f8:8d:0c:5b:b9:34:c6:76:df:61:db:
         5d:1d:4a:c0:a8:5a:81:cb:c7:37:53:d7:61:4f:ab:86:fd:34:
         3d:40:2c:17:ad:34:31:9b:7a:aa:7a:60:2b:00:9d:e3:aa:a4:
         6c:20:85:2d:bd:e5:8c:7f:eb:1d:77:d7:f3:90:d8:bb:1a:34:
         34:c4:e9:7b:6c:c3:6d:35:8a:6c:40:e9:c0:55:f3:51:42:f8:
         77:bb:fd:40:76:4d:c7:8e:c4:13:7f:8d:08:a0:58:ca:43:66:
         d0:f0:c9:37:b9:bd:d7:3f:ab:4a:05:3e:3e:2c:e0:4b:fa:bf:
         c2:05:20:99:12:f4:ae:63:38:ed:b4:2a:78:69:5d:20:28:4d:
         30:0d:c3:4a:9e:1f:99:61:29:30:f1:36:c9:9d:fb:94:97:2a:
         70:50:77:fc:11:d2:1b:66:0d:9b:3f:04:0b:c5:32:e5:52:6d:
         26:6c:41:60:c3:fe:5d:0c:4c:48:ee:21:2f:5b:96:0d:02:8c:
         67:81:59:f0:52:41:b2:a5
-----BEGIN CERTIFICATE-----
MIIFRzCCAy+gAwIBAgIEEkgWPzANBgkqhkiG9w0BAQwFADAmMSQwIgYDVQQDFBtD
QTFfc2hhMzg0XzQwOTZfNjU1MzdfdjNfY2EwHhcNMjIwODE1MTU1NTA1WhcNNDIw
ODEwMTU1NTA1WjAoMSYwJAYDVQQDDB1TUksyX3NoYTM4NF80MDk2XzY1NTM3X3Yz
X3VzcjCCAiIwDQYJKoZIhvcNAQEBBQADggIPADCCAgoCggIBALq2vcKq24B0gpnF
cpMXYoM1mGZtsxS+LzMPOxg+Yw8QCPvzR+69FvLEofwv14795BWB6Vq+k/cIzx5s
Q1Aujo/s++U+bRxPcAnKh2drTLvArIuLEGjlbBKi4EOh+tPbJPEKBdajwdkvM0Cm
BmQmlfbA34noYYHN40uf2mvi4y0oSyxQleV7ORfhwLccLCedXvMUF7nILuB9AU3C
Abt2nUylrWgaVNDNxkQGF6XkYlG1IPov0U8+eNQruAmY64jDUo6CfZ4aLLuiGZ/o
JeATWSlbMXUTvQ0CGdMTVk+ax0XXkm8gfazw3dHlWg6O0NSgcsCAal8qKZAf7ANL
90EAjt4fsVz0YOOlgWEFUHfee8/gP1Z/41nGjNDB8RILO0sK+XDKxTUqFQlOd0Fr
gremIdqzlfjeWWYflADowbwSrczJ/1WfYc10FsM+OA33FcdnPAAuDCKPWc5+lYn+
IibD/YXPT3FwIolmmHwBU+/Nb84xwTLfQXYZbbu6TWQUf3VaIVcTY6kF9AyO0+gU
blct1Tq4l0ao335azBjO+4u/rCDwEYBjSI7Sj+zh8XfpXBYIsH7h4knj4i/mZHOZ
AcSxGrWDVqagJTkgjSt5ddbX6uDh1AAWnO+x/28a3NVAe+Fc+FGtjuRFL0ITpZIm
KCQduiuvjtvSKYIzjsOgs5HVlBRVAgMBAAGjezB5MAkGA1UdEwQCMAAwLAYJYIZI
AYb4QgENBB8WHU9wZW5TU0wgR2VuZXJhdGVkIENlcnRpZmljYXRlMB0GA1UdDgQW
BBTyHufFPl1c8uCZI2vwluY2JIIsODAfBgNVHSMEGDAWgBQjtNpMG2njOr7MZ71a
mPTGiyVxITANBgkqhkiG9w0BAQwFAAOCAgEADb68S7F858Ybujgg9dgFvAUsNGmS
8AH+n0ONBbIWLgUxIWx4m5LCsIqiUcw47HtDoqEMQAth80qpvckTf8TM0lMuvuUb
y1Lef67C+fAfNGtc0NjlSMmfXXredO74FKmWR2SyaR4cRgnHCQAhWlBY0JBl81EV
+C4cyzLMjoqM5lHq3+Ip5hcooGmm8zKXIUMLhRwsm7OaEWeh+IzNkFB6kCrAcGZ3
46DakaclFMyAAB7/oEklmV0dfJUeCdvZdyHer+mchH5t5YypuNH+TXT+MysJhGk7
ktwrjJ7OguPG+rw2wByyo6vaSgQ7vUVFG9UR6gDNS5aC1U/HexIwm5mzfFrF4hIG
mIwNQNx8+oEAmmMgeKSVPByJCa1EbXX5XfYtnYi3Qv7v/BENuqSIBl7kXf7wBUak
UIyc6fiNDFu5NMZ232HbXR1KwKhagcvHN1PXYU+rhv00PUAsF600MZt6qnpgKwCd
46qkbCCFLb3ljH/rHXfX85DYuxo0NMTpe2zDbTWKbEDpwFXzUUL4d7v9QHZNx47E
E3+NCKBYykNm0PDJN7m91z+rSgU+PizgS/q/wgUgmRL0rmM47bQqeGldIChNMA3D
Sp4fmWEpMPE2yZ37lJcqcFB3/BHSG2YNmz8EC8Uy5VJtJmxBYMP+XQxMSO4hL1uW
DQKMZ4FZ8FJBsqU=
-----END CERTIFICATE-----
