Certificate:
    Data:
        Version: 3 (0x2)
        Serial Number: 306714174 (0x1248163e)
        Signature Algorithm: sha384WithRSAEncryption
        Issuer: CN=CA1_sha384_4096_65537_v3_ca
        Validity
            Not Before: Aug 15 15:55:05 2022 GMT
            Not After : Aug 10 15:55:05 2042 GMT
        Subject: CN=SRK1_sha384_4096_65537_v3_usr
        Subject Public Key Info:
            Public Key Algorithm: rsaEncryption
                RSA Public-Key: (4096 bit)
                Modulus:
                    00:c4:56:24:10:c5:c4:a2:6f:1c:7f:b7:74:97:2d:
                    36:b6:72:0e:dd:7d:00:e7:f1:b6:9f:a8:64:eb:f6:
                    1e:be:59:c7:28:e2:c5:65:5b:2d:53:42:4f:32:d6:
                    cc:23:d0:75:07:b4:05:5b:e4:95:47:08:11:fa:59:
                    d2:2e:f9:15:59:06:ab:88:b6:94:f1:aa:eb:e7:92:
                    0a:94:b8:5c:6d:71:37:d8:b1:05:67:ee:e7:79:bd:
                    a2:a9:6d:b8:81:fb:b8:81:12:d1:2b:3e:4b:9f:86:
                    02:54:39:3f:89:3d:7b:b4:48:48:4e:73:9f:57:1e:
                    91:83:d0:d3:95:79:17:dc:e5:73:ea:a4:9d:27:a6:
                    bd:a3:d2:0a:e1:a1:09:47:22:75:8f:7d:11:5a:1d:
                    48:0c:48:38:78:ea:8a:78:2f:c6:1f:c2:d8:0e:b8:
                    88:87:a4:2a:d5:34:0a:c5:14:c6:94:5a:71:64:5a:
                    99:64:9e:75:dd:23:ed:78:6e:c5:0a:5f:9e:fa:ec:
                    c7:d3:86:bd:b8:58:02:74:af:8b:fa:35:4e:13:8e:
                    bf:29:02:50:b1:bf:f5:79:53:86:ab:a9:cb:ec:54:
                    36:a3:86:1d:77:a8:60:aa:3c:f1:fb:66:0f:02:00:
                    01:9e:6c:65:40:7c:df:29:ca:41:8d:75:e9:39:03:
                    76:bc:74:eb:bd:f0:a7:f6:06:64:90:47:a4:56:42:
                    40:9c:b7:1f:1d:b1:35:05:0c:f5:53:25:82:29:48:
                    8a:a7:d2:d5:5c:c0:c5:8a:f2:aa:d5:cf:28:b2:eb:
                    08:6e:34:dc:e2:93:14:9e:f0:4d:a3:5b:14:77:aa:
                    6d:30:3c:57:f6:84:96:98:fc:dc:d4:66:29:e7:c2:
                    bb:b4:f4:d1:bc:3f:5d:1d:69:d5:36:bd:d0:fd:f2:
                    b3:7e:ed:ae:ee:cd:cc:fe:92:48:c9:b5:f2:f5:f1:
                    5f:50:98:6e:0d:44:e7:55:73:a1:75:47:3b:61:2e:
                    b1:cb:59:0a:34:d8:f0:66:1e:ea:05:8c:d3:55:92:
                    9e:9f:9d:62:84:69:8c:d2:9e:e7:78:02:63:d6:f3:
                    1b:db:89:4b:ea:60:5a:38:0b:27:d2:ee:c1:24:65:
                    72:4f:b4:54:d3:55:69:5f:74:c3:1b:00:b6:c5:8b:
                    00:2e:85:f8:20:b0:0c:84:c0:36:ba:3e:a0:ff:33:
                    47:8d:c3:64:a9:3c:d1:41:21:74:57:cc:1f:c6:5c:
                    01:34:83:aa:7b:e8:c4:34:90:53:e5:3e:bb:56:cc:
                    1b:99:79:7b:9a:7a:f5:31:42:72:84:09:a8:02:db:
                    26:79:23:e1:58:c7:6a:ee:32:45:8a:36:6e:c5:5a:
                    bf:ec:cf
                Exponent: 65537 (0x10001)
        X509v3 extensions:
            X509v3 Basic Constraints: 
                CA:FALSE
            Netscape Comment: 
                OpenSSL Generated Certificate
            X509v3 Subject Key Identifier: 
                FE:86:88:75:71:98:92:DA:95:95:80:33:FA:B4:90:FD:C1:4A:40:81
            X509v3 Authority Key Identifier: 
                keyid:23:B4:DA:4C:1B:69:E3:3A:BE:CC:67:BD:5A:98:F4:C6:8B:25:71:21

    Signature Algorithm: sha384WithRSAEncryption
         e4:f0:f5:e2:b7:27:01:04:ef:01:a1:fa:63:14:96:9c:2e:47:
         e6:96:27:8e:2d:fe:67:90:d9:6c:7a:d7:4b:52:17:ca:19:d7:
         7e:9b:61:23:15:31:c9:d2:ec:7b:0e:0d:42:fa:eb:fb:1f:6f:
         e1:a7:9a:c7:75:2c:fe:8f:c4:ce:e7:dd:1b:df:dc:0d:4a:a0:
         7b:2d:d1:3b:49:8c:26:d2:4f:c2:e8:83:c7:ba:ff:31:af:d4:
         55:a2:03:6a:eb:af:de:b6:94:df:04:5b:ef:84:3e:e6:2a:94:
         72:94:99:bf:3d:09:99:9a:71:aa:2d:85:e7:b4:0c:b4:e9:df:
         e7:36:28:f5:43:92:b8:f9:85:a7:98:6d:9d:a5:e5:6c:7b:24:
         07:59:64:4d:26:32:76:9d:c5:8b:57:24:06:9e:da:f3:40:a8:
         6d:12:d8:c4:48:df:e1:2b:66:07:43:e9:4e:97:81:f6:7a:6f:
         71:0b:49:76:84:e1:12:36:71:a9:3e:3b:20:47:51:6a:b9:70:
         8b:c7:f1:16:00:b5:21:21:57:ce:f7:da:09:48:04:b6:74:94:
         35:14:75:03:1e:2b:bf:41:12:dd:8f:87:f4:0b:f0:dd:64:71:
         73:65:b8:b2:eb:e3:57:39:ba:67:d3:16:01:31:28:41:6e:b9:
         00:3b:cd:35:33:4e:bc:a9:1b:da:6f:06:b4:34:66:c3:c8:4a:
         dd:a1:24:5f:0c:5a:aa:ff:66:c3:b7:b2:76:58:9c:a3:08:cc:
         c0:a2:04:93:3a:41:ef:f4:8a:b2:44:d7:1e:5a:d5:ca:ae:bb:
         8b:be:26:61:d6:8b:89:db:b2:38:d1:7e:e1:e3:e0:65:01:2a:
         07:40:e4:c7:67:57:26:46:22:c3:46:c6:f3:60:bb:e9:9b:92:
         d5:13:5d:bb:72:85:f0:16:99:cc:35:11:20:91:c1:2d:a6:b4:
         a7:9c:45:a6:c9:36:77:56:39:fd:2a:d2:55:f9:b3:5b:8b:e6:
         7c:38:a4:ad:03:8c:94:a9:22:2c:2b:5f:c4:13:8f:b4:69:d2:
         58:6b:1a:5d:b4:20:8b:2a:2f:23:38:84:a8:d6:0d:2f:64:2a:
         16:76:8a:b5:1c:f7:56:4c:86:af:73:ef:c4:4a:24:10:b5:93:
         6b:29:c4:b7:1f:96:1b:b2:36:a4:de:e8:1b:6a:95:22:64:12:
         5d:c7:3a:f5:b7:1f:e4:de:c0:5e:73:68:d8:d1:4a:7b:6c:9a:
         0f:cd:3e:39:4b:d0:7e:08:a6:48:ad:bf:18:98:4c:50:61:12:
         42:3a:e7:a7:fc:d9:77:4c:e6:c0:50:43:c0:0e:5c:0f:43:25:
         70:86:9d:56:74:81:1b:34
-----BEGIN CERTIFICATE-----
MIIFRzCCAy+gAwIBAgIEEkgWPjANBgkqhkiG9w0BAQwFADAmMSQwIgYDVQQDFBtD
QTFfc2hhMzg0XzQwOTZfNjU1MzdfdjNfY2EwHhcNMjIwODE1MTU1NTA1WhcNNDIw
ODEwMTU1NTA1WjAoMSYwJAYDVQQDDB1TUksxX3NoYTM4NF80MDk2XzY1NTM3X3Yz
X3VzcjCCAiIwDQYJKoZIhvcNAQEBBQADggIPADCCAgoCggIBAMRWJBDFxKJvHH+3
dJctNrZyDt19AOfxtp+oZOv2Hr5ZxyjixWVbLVNCTzLWzCPQdQe0BVvklUcIEfpZ
0i75FVkGq4i2lPGq6+eSCpS4XG1xN9ixBWfu53m9oqltuIH7uIES0Ss+S5+GAlQ5
P4k9e7RISE5zn1cekYPQ05V5F9zlc+qknSemvaPSCuGhCUcidY99EVodSAxIOHjq
ingvxh/C2A64iIekKtU0CsUUxpRacWRamWSedd0j7XhuxQpfnvrsx9OGvbhYAnSv
i/o1ThOOvykCULG/9XlThqupy+xUNqOGHXeoYKo88ftmDwIAAZ5sZUB83ynKQY11
6TkDdrx0673wp/YGZJBHpFZCQJy3Hx2xNQUM9VMlgilIiqfS1VzAxYryqtXPKLLr
CG403OKTFJ7wTaNbFHeqbTA8V/aElpj83NRmKefCu7T00bw/XR1p1Ta90P3ys37t
ru7NzP6SSMm18vXxX1CYbg1E51VzoXVHO2EusctZCjTY8GYe6gWM01WSnp+dYoRp
jNKe53gCY9bzG9uJS+pgWjgLJ9LuwSRlck+0VNNVaV90wxsAtsWLAC6F+CCwDITA
Nro+oP8zR43DZKk80UEhdFfMH8ZcATSDqnvoxDSQU+U+u1bMG5l5e5p69TFCcoQJ
qALbJnkj4VjHau4yRYo2bsVav+zPAgMBAAGjezB5MAkGA1UdEwQCMAAwLAYJYIZI
AYb4QgENBB8WHU9wZW5TU0wgR2VuZXJhdGVkIENlcnRpZmljYXRlMB0GA1UdDgQW
BBT+hoh1cZiS2pWVgDP6tJD9wUpAgTAfBgNVHSMEGDAWgBQjtNpMG2njOr7MZ71a
mPTGiyVxITANBgkqhkiG9w0BAQwFAAOCAgEA5PD14rcnAQTvAaH6YxSWnC5H5pYn
ji3+Z5DZbHrXS1IXyhnXfpthIxUxydLsew4NQvrr+x9v4aeax3Us/o/EzufdG9/c
DUqgey3RO0mMJtJPwuiDx7r/Ma/UVaIDauuv3raU3wRb74Q+5iqUcpSZvz0JmZpx
qi2F57QMtOnf5zYo9UOSuPmFp5htnaXlbHskB1lkTSYydp3Fi1ckBp7a80CobRLY
xEjf4StmB0PpTpeB9npvcQtJdoThEjZxqT47IEdRarlwi8fxFgC1ISFXzvfaCUgE
tnSUNRR1Ax4rv0ES3Y+H9Avw3WRxc2W4suvjVzm6Z9MWATEoQW65ADvNNTNOvKkb
2m8GtDRmw8hK3aEkXwxaqv9mw7eydlicowjMwKIEkzpB7/SKskTXHlrVyq67i74m
YdaLiduyONF+4ePgZQEqB0Dkx2dXJkYiw0bG82C76ZuS1RNdu3KF8BaZzDURIJHB
Laa0p5xFpsk2d1Y5/SrSVfmzW4vmfDikrQOMlKkiLCtfxBOPtGnSWGsaXbQgiyov
IziEqNYNL2QqFnaKtRz3VkyGr3PvxEokELWTaynEtx+WG7I2pN7oG2qVImQSXcc6
9bcf5N7AXnNo2NFKe2yaD80+OUvQfgimSK2/GJhMUGESQjrnp/zZd0zmwFBDwA5c
D0MlcIadVnSBGzQ=
-----END CERTIFICATE-----
