Certificate:
    Data:
        Version: 3 (0x2)
        Serial Number: 306714176 (0x12481640)
        Signature Algorithm: sha384WithRSAEncryption
        Issuer: CN=CA1_sha384_4096_65537_v3_ca
        Validity
            Not Before: Aug 15 15:55:06 2022 GMT
            Not After : Aug 10 15:55:06 2042 GMT
        Subject: CN=SRK3_sha384_4096_65537_v3_usr
        Subject Public Key Info:
            Public Key Algorithm: rsaEncryption
                RSA Public-Key: (4096 bit)
                Modulus:
                    00:b2:24:40:8c:6e:3d:6f:6b:f2:13:a8:a9:52:46:
                    9f:66:36:a5:36:56:e1:f1:ac:5d:44:46:7c:3d:89:
                    65:d0:da:6e:d1:df:b3:cb:31:7f:5b:1b:a4:33:d1:
                    47:dd:34:bb:30:df:4d:64:7d:89:80:60:f2:1f:e9:
                    4a:4a:8e:a2:31:be:ee:a7:ff:62:fb:2a:15:7d:1f:
                    df:22:b2:01:5c:1a:99:62:b8:c5:74:e8:44:25:7b:
                    49:b5:e5:8f:f6:54:45:98:c6:a9:78:8a:70:43:ff:
                    9d:93:77:7a:97:22:08:4b:c7:92:b8:ab:2e:f3:65:
                    f5:b1:8b:63:99:3e:2f:28:4d:6c:cd:7c:40:6a:9a:
                    4d:ac:4a:8f:7f:af:f2:de:47:2f:7f:a6:6e:48:b9:
                    4a:92:19:b0:29:5a:61:ed:42:af:b3:41:c1:a7:1a:
                    ba:ea:77:35:75:4a:7d:e2:a2:da:2f:c1:e5:a9:02:
                    24:75:0d:aa:b6:8d:dc:d0:b1:eb:e9:51:51:77:fc:
                    4b:2b:c7:ee:b6:56:22:97:d1:a2:a4:72:2d:98:a8:
                    d1:cf:98:8c:31:e6:6e:75:2e:e6:ff:75:0f:ca:28:
                    19:ed:99:4c:ba:b5:8c:19:45:0b:b3:f2:c2:00:14:
                    bc:93:ac:4c:0a:70:d6:31:37:00:55:2e:df:f0:56:
                    2b:26:fa:16:b2:84:f0:84:73:d8:fa:bd:f2:c0:29:
                    ab:25:12:ed:64:92:0e:55:5b:8d:18:ab:de:2f:db:
                    26:27:8f:64:02:82:23:db:5a:8f:21:58:2e:37:b6:
                    c0:31:22:71:fb:fd:54:b2:f1:08:7b:a0:70:c6:2b:
                    db:63:c9:6f:77:94:b3:b1:64:8f:f9:92:8d:63:25:
                    ac:a6:4a:8c:82:70:ac:54:79:74:1b:e5:da:3f:0b:
                    6a:e6:2d:07:77:55:8f:ae:77:1c:3e:69:55:c2:b2:
                    29:30:ad:24:6c:9f:07:6a:df:42:be:b5:56:1b:d9:
                    d4:e1:c9:09:23:24:b5:fd:e7:14:b8:9a:15:e2:9c:
                    ed:2e:2d:71:04:11:ef:65:3f:07:fd:8d:db:ef:24:
                    e5:11:6d:f5:62:83:c0:69:95:1d:5e:89:cb:c6:f1:
                    2d:b9:59:40:45:02:98:11:e5:1b:f6:27:66:97:17:
                    bf:e0:60:4a:33:d0:03:b3:df:af:52:75:9a:fb:a1:
                    cb:2d:61:ce:94:35:6d:71:81:f4:f7:1b:be:91:84:
                    2f:45:37:f7:df:39:2a:c6:55:28:bf:3c:54:21:45:
                    50:d3:83:7b:e2:fb:3b:9f:52:c5:f8:d3:50:6e:60:
                    7d:4c:2e:30:a6:23:ab:3b:f3:a6:4f:11:06:51:ea:
                    4f:60:f3
                Exponent: 65537 (0x10001)
        X509v3 extensions:
            X509v3 Basic Constraints: 
                CA:FALSE
            Netscape Comment: 
                OpenSSL Generated Certificate
            X509v3 Subject Key Identifier: 
                E5:27:78:67:80:72:22:FD:0F:9E:EE:0B:6B:6F:AE:D9:D2:CA:1C:7D
            X509v3 Authority Key Identifier: 
                keyid:23:B4:DA:4C:1B:69:E3:3A:BE:CC:67:BD:5A:98:F4:C6:8B:25:71:21

    Signature Algorithm: sha384WithRSAEncryption
         25:4f:35:46:d9:59:72:a9:40:bb:a6:57:e3:94:d4:f1:7d:91:
         a0:c5:f0:62:79:cb:d7:7a:9d:ab:e1:2c:78:87:a5:66:be:e0:
         da:f2:8b:9b:bd:79:ef:09:db:c2:18:be:06:84:ea:fc:cc:35:
         13:e5:70:3f:e6:7f:29:30:9c:94:8f:db:4f:1a:e9:22:a5:67:
         54:c3:7d:bf:fa:8d:65:e8:ce:ea:e9:fc:56:29:f2:26:28:f2:
         4c:e0:ef:58:08:4b:bc:4d:eb:bf:41:b9:a3:5a:55:86:4e:ee:
         a8:7f:23:1c:9d:59:a0:e2:6a:2c:29:17:77:d6:05:43:00:d7:
         5d:ba:95:5d:ff:c3:fc:58:23:88:3e:6c:02:c5:9f:21:ee:61:
         25:34:a6:a5:43:e5:73:ce:9c:97:2f:9e:32:4f:cc:f6:2a:b7:
         f3:26:6a:18:37:28:52:36:27:af:0c:dd:31:a6:2c:d9:a9:49:
         a5:5e:21:72:be:78:1a:4a:36:e1:71:28:56:dc:23:87:01:26:
         10:17:57:6b:72:bf:a2:d0:a5:d0:51:f8:9b:64:2b:7f:f4:de:
         75:de:32:c7:7d:d7:d2:a3:cc:11:a7:e0:44:a4:08:e4:cc:42:
         92:b5:02:dc:f1:a9:6d:e3:36:fe:7f:1f:05:a5:1c:88:7c:5b:
         6a:bc:ef:38:52:f9:46:e4:49:20:a4:0d:88:32:57:fe:eb:1f:
         6d:8b:ba:f8:93:c0:7d:9f:ea:b8:e5:e4:b7:ae:15:7e:83:a2:
         dd:e1:d2:d7:8c:74:ea:9e:f4:da:f2:9d:c3:c5:72:2b:7d:8f:
         18:f1:66:9e:65:07:3d:7a:60:9e:3b:1c:83:db:20:1b:3a:29:
         7d:f1:8e:b8:82:35:ab:bd:11:7d:83:d6:bf:f6:2c:88:70:bc:
         32:88:ed:d1:5e:06:a1:c5:d9:8e:12:0d:1f:0e:5b:b9:6e:ae:
         71:08:73:55:3e:6e:d3:96:45:db:2f:ee:31:9f:9a:04:52:83:
         5a:b9:1a:c3:53:03:e5:78:7b:ac:b6:c6:03:22:3d:d3:fa:5a:
         06:9c:a2:7a:f5:db:9a:e7:05:e5:57:e8:27:96:aa:af:de:c2:
         9b:f4:af:96:46:2b:57:07:b1:0d:d9:99:ae:ae:20:70:b4:39:
         e9:c8:8d:6d:a8:2a:52:d1:78:f2:6f:3c:16:77:df:10:54:2f:
         ab:23:55:60:4b:c5:9a:f0:bf:38:c2:d9:4c:74:ae:d1:e3:8c:
         33:ec:c7:66:77:63:f4:35:99:29:fc:ea:b1:d2:e2:55:3f:63:
         da:f6:6e:dd:6f:eb:a3:19:bd:cc:27:18:ad:72:33:ab:75:07:
         f7:f5:db:20:94:7d:3a:e1
-----BEGIN CERTIFICATE-----
MIIFRzCCAy+gAwIBAgIEEkgWQDANBgkqhkiG9w0BAQwFADAmMSQwIgYDVQQDFBtD
QTFfc2hhMzg0XzQwOTZfNjU1MzdfdjNfY2EwHhcNMjIwODE1MTU1NTA2WhcNNDIw
ODEwMTU1NTA2WjAoMSYwJAYDVQQDDB1TUkszX3NoYTM4NF80MDk2XzY1NTM3X3Yz
X3VzcjCCAiIwDQYJKoZIhvcNAQEBBQADggIPADCCAgoCggIBALIkQIxuPW9r8hOo
qVJGn2Y2pTZW4fGsXURGfD2JZdDabtHfs8sxf1sbpDPRR900uzDfTWR9iYBg8h/p
SkqOojG+7qf/YvsqFX0f3yKyAVwamWK4xXToRCV7SbXlj/ZURZjGqXiKcEP/nZN3
epciCEvHkrirLvNl9bGLY5k+LyhNbM18QGqaTaxKj3+v8t5HL3+mbki5SpIZsCla
Ye1Cr7NBwacauup3NXVKfeKi2i/B5akCJHUNqraN3NCx6+lRUXf8SyvH7rZWIpfR
oqRyLZio0c+YjDHmbnUu5v91D8ooGe2ZTLq1jBlFC7PywgAUvJOsTApw1jE3AFUu
3/BWKyb6FrKE8IRz2Pq98sApqyUS7WSSDlVbjRir3i/bJiePZAKCI9tajyFYLje2
wDEicfv9VLLxCHugcMYr22PJb3eUs7Fkj/mSjWMlrKZKjIJwrFR5dBvl2j8LauYt
B3dVj653HD5pVcKyKTCtJGyfB2rfQr61VhvZ1OHJCSMktf3nFLiaFeKc7S4tcQQR
72U/B/2N2+8k5RFt9WKDwGmVHV6Jy8bxLblZQEUCmBHlG/YnZpcXv+BgSjPQA7Pf
r1J1mvuhyy1hzpQ1bXGB9PcbvpGEL0U39985KsZVKL88VCFFUNODe+L7O59SxfjT
UG5gfUwuMKYjqzvzpk8RBlHqT2DzAgMBAAGjezB5MAkGA1UdEwQCMAAwLAYJYIZI
AYb4QgENBB8WHU9wZW5TU0wgR2VuZXJhdGVkIENlcnRpZmljYXRlMB0GA1UdDgQW
BBTlJ3hngHIi/Q+e7gtrb67Z0socfTAfBgNVHSMEGDAWgBQjtNpMG2njOr7MZ71a
mPTGiyVxITANBgkqhkiG9w0BAQwFAAOCAgEAJU81RtlZcqlAu6ZX45TU8X2RoMXw
YnnL13qdq+EseIelZr7g2vKLm7157wnbwhi+BoTq/Mw1E+VwP+Z/KTCclI/bTxrp
IqVnVMN9v/qNZejO6un8VinyJijyTODvWAhLvE3rv0G5o1pVhk7uqH8jHJ1ZoOJq
LCkXd9YFQwDXXbqVXf/D/FgjiD5sAsWfIe5hJTSmpUPlc86cly+eMk/M9iq38yZq
GDcoUjYnrwzdMaYs2alJpV4hcr54Gko24XEoVtwjhwEmEBdXa3K/otCl0FH4m2Qr
f/Tedd4yx33X0qPMEafgRKQI5MxCkrUC3PGpbeM2/n8fBaUciHxbarzvOFL5RuRJ
IKQNiDJX/usfbYu6+JPAfZ/quOXkt64VfoOi3eHS14x06p702vKdw8VyK32PGPFm
nmUHPXpgnjscg9sgGzopffGOuII1q70RfYPWv/YsiHC8Mojt0V4GocXZjhINHw5b
uW6ucQhzVT5u05ZF2y/uMZ+aBFKDWrkaw1MD5Xh7rLbGAyI90/paBpyievXbmucF
5VfoJ5aqr97Cm/SvlkYrVwexDdmZrq4gcLQ56ciNbagqUtF48m88FnffEFQvqyNV
YEvFmvC/OMLZTHSu0eOMM+zHZndj9DWZKfzqsdLiVT9j2vZu3W/roxm9zCcYrXIz
q3UH9/XbIJR9OuE=
-----END CERTIFICATE-----
