Certificate:
    Data:
        Version: 3 (0x2)
        Serial Number: 306714177 (0x12481641)
        Signature Algorithm: sha384WithRSAEncryption
        Issuer: CN=CA1_sha384_4096_65537_v3_ca
        Validity
            Not Before: Aug 15 15:55:06 2022 GMT
            Not After : Aug 10 15:55:06 2042 GMT
        Subject: CN=SRK4_sha384_4096_65537_v3_usr
        Subject Public Key Info:
            Public Key Algorithm: rsaEncryption
                RSA Public-Key: (4096 bit)
                Modulus:
                    00:bd:9c:1f:d2:da:9b:54:60:39:76:7d:60:1c:c6:
                    d0:ae:e2:09:38:4b:c7:9d:c1:88:32:85:d3:f6:32:
                    3d:f7:d8:64:e4:5a:bf:fa:0e:77:53:3b:5c:90:33:
                    1f:8c:22:be:89:cb:d0:9c:29:64:5a:62:8e:9c:df:
                    fd:1e:82:e0:77:9f:fe:83:8d:94:0d:3f:b4:02:de:
                    23:b2:6b:10:5b:f2:86:73:4f:c3:2d:73:24:ac:e7:
                    9a:9b:14:0b:76:88:e5:46:2f:3d:71:c3:7c:5b:49:
                    51:2c:3c:46:13:2c:63:bb:13:f4:5b:1a:4a:07:74:
                    9b:a7:c3:e0:e4:88:77:e8:ed:c9:95:aa:5d:e9:42:
                    fb:47:28:5b:52:2c:ef:66:06:54:41:d6:f9:59:39:
                    c8:d5:b1:b3:09:40:2a:a5:f7:3d:f2:b2:07:18:c8:
                    94:99:a0:4f:88:fd:b1:32:7b:56:33:92:5d:75:11:
                    33:f0:55:d1:75:70:43:d0:5d:5f:6e:51:eb:7b:b5:
                    8b:fa:e4:46:aa:0d:fa:d0:a3:fa:d9:e3:b7:8b:f4:
                    21:9e:62:7b:e5:48:4f:90:38:bf:0e:f5:4e:0e:6f:
                    14:b4:cd:7d:b6:96:54:bc:d4:f3:ce:4d:ae:c9:b8:
                    d9:04:08:e2:b7:ac:c3:89:12:33:17:0a:b0:19:c0:
                    cd:a2:a5:29:a8:c3:8b:cf:ab:46:6b:53:b5:40:27:
                    4e:ed:5d:47:17:54:21:f6:2b:69:a6:f5:16:d1:d1:
                    8f:27:2e:d9:e4:a7:75:d9:3e:0b:7d:74:00:0d:4a:
                    ec:4b:ec:97:06:ad:36:ad:28:b0:48:d0:4e:a3:c5:
                    fd:b0:62:7a:46:d0:84:86:27:b1:7e:fe:19:99:53:
                    1b:43:30:ed:67:e3:db:37:1b:58:31:82:a8:5e:2a:
                    12:34:cb:e3:b0:b2:6b:ba:05:bf:38:d2:5b:80:f7:
                    03:f3:e6:00:a1:bf:04:71:37:40:b6:54:93:53:da:
                    f7:da:5e:8a:32:a8:01:55:f3:46:49:98:8c:59:78:
                    1e:fe:34:b1:04:d6:b8:14:5b:d3:6a:8d:9e:50:3f:
                    6b:1d:85:56:ce:55:24:db:f0:73:21:28:ef:72:c1:
                    51:f5:09:13:4c:66:ee:a5:ae:12:7f:f7:61:85:df:
                    d4:ad:7c:20:d6:0d:25:47:d1:29:16:db:65:a2:82:
                    dd:40:b0:10:97:60:b5:2c:d8:b2:43:54:d1:47:b1:
                    ab:fc:64:e0:02:a3:84:3e:af:d6:a7:95:e4:94:cf:
                    d2:c7:c5:30:39:5d:5f:c8:39:71:dd:63:cf:f0:0e:
                    f7:ee:98:80:f9:10:66:45:53:cf:48:8e:f5:77:de:
                    e2:ac:69
                Exponent: 65537 (0x10001)
        X509v3 extensions:
            X509v3 Basic Constraints: 
                CA:FALSE
            Netscape Comment: 
                OpenSSL Generated Certificate
            X509v3 Subject Key Identifier: 
                2A:8B:12:6D:A4:24:05:47:C7:69:C3:20:25:42:0A:A4:4A:73:7F:EF
            X509v3 Authority Key Identifier: 
                keyid:23:B4:DA:4C:1B:69:E3:3A:BE:CC:67:BD:5A:98:F4:C6:8B:25:71:21

    Signature Algorithm: sha384WithRSAEncryption
         ca:1c:9c:0a:b9:80:e0:3e:19:81:27:21:5d:2a:c8:f7:8c:e2:
         eb:1d:3d:c2:2a:75:d7:29:df:50:1e:5d:49:a3:60:48:e0:21:
         96:59:63:bc:98:d7:1a:29:1e:de:32:5a:3d:88:00:fb:99:36:
         a0:27:2c:0e:20:68:4f:1c:ae:1d:66:e0:b9:67:b7:6d:dd:da:
         bd:6e:05:b9:80:67:c4:5c:41:1c:77:af:31:05:78:5f:9b:3e:
         a5:57:b2:bb:42:62:dd:b0:f3:04:c5:fd:e9:38:ab:2d:b4:47:
         18:90:e7:58:0d:ed:55:75:e4:56:ff:e3:0b:09:5e:0f:f2:4a:
         8e:a0:00:60:2c:3a:9a:73:15:32:a4:f3:07:f5:72:39:c9:48:
         39:9d:e0:15:56:e4:cf:0a:38:8d:35:c0:f9:e0:2d:95:8c:74:
         f7:27:e0:c7:17:ec:41:e3:13:d8:34:06:e0:c8:40:bc:f0:59:
         59:bc:91:a0:ba:ea:15:f0:ec:e7:2e:60:cd:18:20:01:1f:da:
         2a:28:ac:8f:50:47:90:fc:b3:8c:8e:31:be:16:86:69:ac:07:
         e9:66:01:43:86:0c:19:3a:da:89:c6:62:07:6c:b0:28:cd:3c:
         58:ef:66:95:af:84:79:84:c6:6b:66:d6:ce:f3:86:ce:39:af:
         8e:47:64:ed:21:fb:d5:6f:90:fd:f3:d3:71:02:ef:bf:63:31:
         67:fa:c2:93:7a:28:4b:05:d6:a7:8f:0d:07:a3:fe:c2:38:a3:
         76:6c:c3:de:57:a7:9c:04:d9:27:ce:9e:94:bc:1e:2f:be:71:
         dc:5c:38:88:1b:ec:a0:ef:8f:d4:93:16:5b:f3:0f:4d:32:a7:
         88:08:33:22:ee:12:aa:08:e1:75:82:14:6d:0e:d5:84:c3:10:
         2c:74:e4:1a:ac:8c:42:60:46:8a:88:a8:82:d8:1f:99:c3:1d:
         9b:f4:4f:e5:03:68:88:9e:d3:2c:01:7c:05:8a:57:05:10:e1:
         d6:97:54:fb:fd:0e:99:9d:af:fe:ea:cb:c2:f6:36:22:1c:66:
         ba:2c:f9:88:3f:e2:79:9d:f9:b8:e1:a9:4a:e6:b5:ba:81:0b:
         59:10:4e:19:bb:4c:13:24:d7:98:4e:85:bc:f0:3b:57:0d:69:
         29:6f:25:31:f8:76:dd:97:db:e2:72:5d:e5:9a:a0:e1:f6:c4:
         93:da:86:99:0c:a5:6b:93:4b:2b:9f:0a:f8:b0:96:b5:1b:47:
         a5:14:94:f4:42:f1:5a:12:6f:49:2e:b5:61:42:3b:39:7b:f6:
         51:67:71:f9:22:dd:a9:0d:7d:5f:83:e8:c9:30:2d:e8:18:60:
         ad:0a:17:29:5c:51:c9:4a
-----BEGIN CERTIFICATE-----
MIIFRzCCAy+gAwIBAgIEEkgWQTANBgkqhkiG9w0BAQwFADAmMSQwIgYDVQQDFBtD
QTFfc2hhMzg0XzQwOTZfNjU1MzdfdjNfY2EwHhcNMjIwODE1MTU1NTA2WhcNNDIw
ODEwMTU1NTA2WjAoMSYwJAYDVQQDDB1TUks0X3NoYTM4NF80MDk2XzY1NTM3X3Yz
X3VzcjCCAiIwDQYJKoZIhvcNAQEBBQADggIPADCCAgoCggIBAL2cH9Lam1RgOXZ9
YBzG0K7iCThLx53BiDKF0/YyPffYZORav/oOd1M7XJAzH4wivonL0JwpZFpijpzf
/R6C4Hef/oONlA0/tALeI7JrEFvyhnNPwy1zJKznmpsUC3aI5UYvPXHDfFtJUSw8
RhMsY7sT9FsaSgd0m6fD4OSId+jtyZWqXelC+0coW1Is72YGVEHW+Vk5yNWxswlA
KqX3PfKyBxjIlJmgT4j9sTJ7VjOSXXURM/BV0XVwQ9BdX25R63u1i/rkRqoN+tCj
+tnjt4v0IZ5ie+VIT5A4vw71Tg5vFLTNfbaWVLzU885Nrsm42QQI4resw4kSMxcK
sBnAzaKlKajDi8+rRmtTtUAnTu1dRxdUIfYraab1FtHRjycu2eSnddk+C310AA1K
7EvslwatNq0osEjQTqPF/bBiekbQhIYnsX7+GZlTG0Mw7Wfj2zcbWDGCqF4qEjTL
47Cya7oFvzjSW4D3A/PmAKG/BHE3QLZUk1Pa99peijKoAVXzRkmYjFl4Hv40sQTW
uBRb02qNnlA/ax2FVs5VJNvwcyEo73LBUfUJE0xm7qWuEn/3YYXf1K18INYNJUfR
KRbbZaKC3UCwEJdgtSzYskNU0Uexq/xk4AKjhD6v1qeV5JTP0sfFMDldX8g5cd1j
z/AO9+6YgPkQZkVTz0iO9Xfe4qxpAgMBAAGjezB5MAkGA1UdEwQCMAAwLAYJYIZI
AYb4QgENBB8WHU9wZW5TU0wgR2VuZXJhdGVkIENlcnRpZmljYXRlMB0GA1UdDgQW
BBQqixJtpCQFR8dpwyAlQgqkSnN/7zAfBgNVHSMEGDAWgBQjtNpMG2njOr7MZ71a
mPTGiyVxITANBgkqhkiG9w0BAQwFAAOCAgEAyhycCrmA4D4ZgSchXSrI94zi6x09
wip11ynfUB5dSaNgSOAhllljvJjXGike3jJaPYgA+5k2oCcsDiBoTxyuHWbguWe3
bd3avW4FuYBnxFxBHHevMQV4X5s+pVeyu0Ji3bDzBMX96TirLbRHGJDnWA3tVXXk
Vv/jCwleD/JKjqAAYCw6mnMVMqTzB/VyOclIOZ3gFVbkzwo4jTXA+eAtlYx09yfg
xxfsQeMT2DQG4MhAvPBZWbyRoLrqFfDs5y5gzRggAR/aKiisj1BHkPyzjI4xvhaG
aawH6WYBQ4YMGTraicZiB2ywKM08WO9mla+EeYTGa2bWzvOGzjmvjkdk7SH71W+Q
/fPTcQLvv2MxZ/rCk3ooSwXWp48NB6P+wjijdmzD3lennATZJ86elLweL75x3Fw4
iBvsoO+P1JMWW/MPTTKniAgzIu4SqgjhdYIUbQ7VhMMQLHTkGqyMQmBGioiogtgf
mcMdm/RP5QNoiJ7TLAF8BYpXBRDh1pdU+/0OmZ2v/urLwvY2Ihxmuiz5iD/ieZ35
uOGpSua1uoELWRBOGbtMEyTXmE6FvPA7Vw1pKW8lMfh23Zfb4nJd5Zqg4fbEk9qG
mQyla5NLK58K+LCWtRtHpRSU9ELxWhJvSS61YUI7OXv2UWdx+SLdqQ19X4PoyTAt
6BhgrQoXKVxRyUo=
-----END CERTIFICATE-----
